target datalayout = "e-m:e-p270:32:32-p271:32:32-p272:64:64-i64:64-i128:128-f80:128-n8:16:32:64-S128"
target triple = "x86_64-pc-linux-gnu"

%struct.wtap_opttype_t = type { ptr, ptr, i32, i32 }
%struct.wtap_block = type { ptr, ptr, ptr, i32 }
%struct.wtap_blocktype_t = type { i32, ptr, ptr, ptr, ptr, ptr, ptr }
%struct._GArray = type { ptr, i32 }
%struct.wtap_option_t = type { i32, %union.wtap_optval_t }
%union.wtap_optval_t = type { %struct.custom_opt_s }
%struct.custom_opt_s = type { i32, %union.anon.0 }
%union.anon.0 = type { %struct.nflx_custom_opt_data }
%struct.nflx_custom_opt_data = type { i32, i64, ptr, i8 }

; Function Attrs: null_pointer_is_valid sspstrong uwtable
define i32 @wtap_block_remove_nth_option_instance(ptr noundef %0, i32 noundef %1, i32 noundef %2) #0 {
  %4 = alloca i32, align 4
  %5 = alloca ptr, align 8
  %6 = alloca i32, align 4
  %7 = alloca i32, align 4
  %8 = alloca ptr, align 8
  %9 = alloca i32, align 4
  %10 = alloca ptr, align 8
  %11 = alloca i32, align 4
  %12 = alloca i32, align 4
  store ptr %0, ptr %5, align 8
  store i32 %1, ptr %6, align 4
  store i32 %2, ptr %7, align 4
  call void @llvm.lifetime.start.p0(i64 8, ptr %8) #15
  call void @llvm.lifetime.start.p0(i64 4, ptr %9) #15
  call void @llvm.lifetime.start.p0(i64 8, ptr %10) #15
  call void @llvm.lifetime.start.p0(i64 4, ptr %11) #15
  %13 = load ptr, ptr %5, align 8
  %14 = icmp eq ptr %13, null
  br i1 %14, label %15, label %16

15:                                               ; preds = %3
  store i32 -6, ptr %4, align 4
  store i32 1, ptr %12, align 4
  br label %79

16:                                               ; preds = %3
  %17 = load ptr, ptr %5, align 8
  %18 = getelementptr inbounds nuw %struct.wtap_block, ptr %17, i32 0, i32 0
  %19 = load ptr, ptr %18, align 8
  %20 = getelementptr inbounds nuw %struct.wtap_blocktype_t, ptr %19, i32 0, i32 6
  %21 = load ptr, ptr %20, align 8
  %22 = load i32, ptr %6, align 4
  %23 = zext i32 %22 to i64
  %24 = inttoptr i64 %23 to ptr
  %25 = call ptr @g_hash_table_lookup(ptr noundef %21, ptr noundef %24)
  store ptr %25, ptr %8, align 8
  %26 = load ptr, ptr %8, align 8
  %27 = icmp eq ptr %26, null
  br i1 %27, label %28, label %29

28:                                               ; preds = %16
  store i32 -1, ptr %4, align 4
  store i32 1, ptr %12, align 4
  br label %79

29:                                               ; preds = %16
  %30 = load ptr, ptr %8, align 8
  %31 = getelementptr inbounds nuw %struct.wtap_opttype_t, ptr %30, i32 0, i32 3
  %32 = load i32, ptr %31, align 4
  %33 = and i32 %32, 1
  %34 = icmp ne i32 %33, 0
  br i1 %34, label %36, label %35

35:                                               ; preds = %29
  store i32 -4, ptr %4, align 4
  store i32 1, ptr %12, align 4
  br label %79

36:                                               ; preds = %29
  store i32 0, ptr %11, align 4
  store i32 0, ptr %9, align 4
  br label %37

37:                                               ; preds = %75, %36
  %38 = load i32, ptr %9, align 4
  %39 = load ptr, ptr %5, align 8
  %40 = getelementptr inbounds nuw %struct.wtap_block, ptr %39, i32 0, i32 2
  %41 = load ptr, ptr %40, align 8
  %42 = getelementptr inbounds nuw %struct._GArray, ptr %41, i32 0, i32 1
  %43 = load i32, ptr %42, align 8
  %44 = icmp ult i32 %38, %43
  br i1 %44, label %45, label %78

45:                                               ; preds = %37
  %46 = load ptr, ptr %5, align 8
  %47 = getelementptr inbounds nuw %struct.wtap_block, ptr %46, i32 0, i32 2
  %48 = load ptr, ptr %47, align 8
  %49 = getelementptr inbounds nuw %struct._GArray, ptr %48, i32 0, i32 0
  %50 = load ptr, ptr %49, align 8
  %51 = load i32, ptr %9, align 4
  %52 = zext i32 %51 to i64
  %53 = getelementptr %struct.wtap_option_t, ptr %50, i64 %52
  store ptr %53, ptr %10, align 8
  %54 = load ptr, ptr %10, align 8
  %55 = getelementptr inbounds nuw %struct.wtap_option_t, ptr %54, i32 0, i32 0
  %56 = load i32, ptr %55, align 8
  %57 = load i32, ptr %6, align 4
  %58 = icmp eq i32 %56, %57
  br i1 %58, label %59, label %74

59:                                               ; preds = %45
  %60 = load i32, ptr %11, align 4
  %61 = load i32, ptr %7, align 4
  %62 = icmp eq i32 %60, %61
  br i1 %62, label %63, label %71

63:                                               ; preds = %59
  %64 = load ptr, ptr %5, align 8
  %65 = load ptr, ptr %10, align 8
  call void @wtap_block_free_option(ptr noundef %64, ptr noundef %65)
  %66 = load ptr, ptr %5, align 8
  %67 = getelementptr inbounds nuw %struct.wtap_block, ptr %66, i32 0, i32 2
  %68 = load ptr, ptr %67, align 8
  %69 = load i32, ptr %9, align 4
  %70 = call ptr @g_array_remove_index(ptr noundef %68, i32 noundef %69)
  store i32 0, ptr %4, align 4
  store i32 1, ptr %12, align 4
  br label %79

71:                                               ; preds = %59
  %72 = load i32, ptr %11, align 4
  %73 = add i32 %72, 1
  store i32 %73, ptr %11, align 4
  br label %74

74:                                               ; preds = %71, %45
  br label %75

75:                                               ; preds = %74
  %76 = load i32, ptr %9, align 4
  %77 = add i32 %76, 1
  store i32 %77, ptr %9, align 4
  br label %37, !llvm.loop !18

78:                                               ; preds = %37
  store i32 -2, ptr %4, align 4
  store i32 1, ptr %12, align 4
  br label %79

79:                                               ; preds = %78, %63, %35, %28, %15
  call void @llvm.lifetime.end.p0(i64 4, ptr %11) #15
  call void @llvm.lifetime.end.p0(i64 8, ptr %10) #15
  call void @llvm.lifetime.end.p0(i64 4, ptr %9) #15
  call void @llvm.lifetime.end.p0(i64 8, ptr %8) #15
  %80 = load i32, ptr %4, align 4
  ret i32 %80
}