; Function Attrs: null_pointer_is_valid sspstrong uwtable
define range(i32 -6, 1) i32 @wtap_block_remove_nth_option_instance(ptr noundef readonly captures(address_is_null) %0, i32 noundef %1, i32 noundef %2) local_unnamed_addr #0 {
  %4 = icmp eq ptr %0, null
  br i1 %4, label %.loopexit, label %5

5:                                                ; preds = %3
  %6 = load ptr, ptr %0, align 8
  %7 = getelementptr inbounds nuw i8, ptr %6, i64 48
  %8 = load ptr, ptr %7, align 8
  %9 = zext i32 %1 to i64
  %10 = inttoptr i64 %9 to ptr
  %11 = tail call ptr @g_hash_table_lookup(ptr noundef %8, ptr noundef %10)
  %12 = icmp eq ptr %11, null
  br i1 %12, label %.loopexit, label %13

13:                                               ; preds = %5
  %14 = getelementptr inbounds nuw i8, ptr %11, i64 20
  %15 = load i32, ptr %14, align 4
  %16 = and i32 %15, 1
  %.not = icmp eq i32 %16, 0
  br i1 %.not, label %.loopexit, label %.preheader

.preheader:                                       ; preds = %13
  %17 = getelementptr inbounds nuw i8, ptr %0, i64 16
  %18 = load ptr, ptr %17, align 8
  %19 = getelementptr inbounds nuw i8, ptr %18, i64 8
  %20 = load i32, ptr %19, align 8
  %.not28 = icmp eq i32 %20, 0
  br i1 %.not28, label %.loopexit, label %.lr.ph

.lr.ph:                                           ; preds = %.preheader
  %21 = load ptr, ptr %18, align 8
  %wide.trip.count = zext i32 %20 to i64
  br label %22

22:                                               ; preds = %.lr.ph, %35
  %indvars.iv = phi i64 [ 0, %.lr.ph ], [ %indvars.iv.next, %35 ]
  %.027 = phi i32 [ 0, %.lr.ph ], [ %.1, %35 ]
  %23 = getelementptr %struct.wtap_option_t, ptr %21, i64 %indvars.iv
  %24 = load i32, ptr %23, align 8
  %25 = icmp eq i32 %24, %1
  br i1 %25, label %26, label %35

26:                                               ; preds = %22
  %27 = icmp eq i32 %.027, %2
  br i1 %27, label %28, label %33

28:                                               ; preds = %26
  %29 = trunc nuw i64 %indvars.iv to i32
  %.val = load ptr, ptr %0, align 8
  %30 = getelementptr i8, ptr %.val, i64 48
  %.val.val = load ptr, ptr %30, align 8
  tail call fastcc void @wtap_block_free_option(ptr %.val.val, ptr noundef %23)
  %31 = load ptr, ptr %17, align 8
  %32 = tail call ptr @g_array_remove_index(ptr noundef %31, i32 noundef %29)
  br label %.loopexit

33:                                               ; preds = %26
  %34 = add i32 %.027, 1
  br label %35

35:                                               ; preds = %22, %33
  %.1 = phi i32 [ %34, %33 ], [ %.027, %22 ]
  %indvars.iv.next = add nuw nsw i64 %indvars.iv, 1
  %exitcond.not = icmp eq i64 %indvars.iv.next, %wide.trip.count
  br i1 %exitcond.not, label %.loopexit, label %22, !llvm.loop !26

.loopexit:                                        ; preds = %35, %.preheader, %13, %5, %3, %28
  %.019 = phi i32 [ 0, %28 ], [ -6, %3 ], [ -1, %5 ], [ -4, %13 ], [ -2, %.preheader ], [ -2, %35 ]
  ret i32 %.019
}